target datalayout = "e-m:e-p270:32:32-p271:32:32-p272:64:64-i64:64-i128:128-f80:128-n8:16:32:64-S128"
target triple = "x86_64-pc-linux-gnu"

@_posixshmem_shm_open._keywords = internal global [4 x ptr] [ptr @.str.5, ptr @.str.6, ptr @.str.7, ptr null], align 16
@.str.8 = private unnamed_addr constant [14 x i8] c"Ui|i:shm_open\00", align 1
@PyExc_ValueError = external global ptr, align 8
@.str.9 = private unnamed_addr constant [24 x i8] c"embedded null character\00", align 1
@PyExc_OSError = external global ptr, align 8

; Function Attrs: nounwind uwtable
define internal i32 @_posixshmem_shm_open_impl(ptr noundef %0, ptr noundef %1, i32 noundef %2, i32 noundef %3) #0 {
  %5 = alloca i32, align 4
  %6 = alloca ptr, align 8
  %7 = alloca ptr, align 8
  %8 = alloca i32, align 4
  %9 = alloca i32, align 4
  %10 = alloca i32, align 4
  %11 = alloca i32, align 4
  %12 = alloca i64, align 8
  %13 = alloca ptr, align 8
  %14 = alloca i32, align 4
  %15 = alloca ptr, align 8
  store ptr %0, ptr %6, align 8, !tbaa !3
  store ptr %1, ptr %7, align 8, !tbaa !3
  store i32 %2, ptr %8, align 4, !tbaa !8
  store i32 %3, ptr %9, align 4, !tbaa !8
  call void @llvm.lifetime.start.p0(i64 4, ptr %10) #6
  call void @llvm.lifetime.start.p0(i64 4, ptr %11) #6
  store i32 0, ptr %11, align 4, !tbaa !8
  call void @llvm.lifetime.start.p0(i64 8, ptr %12) #6
  call void @llvm.lifetime.start.p0(i64 8, ptr %13) #6
  %16 = load ptr, ptr %7, align 8, !tbaa !3
  %17 = call ptr @PyUnicode_AsUTF8AndSize(ptr noundef %16, ptr noundef %12)
  store ptr %17, ptr %13, align 8, !tbaa !10
  %18 = load ptr, ptr %13, align 8, !tbaa !10
  %19 = icmp eq ptr %18, null
  br i1 %19, label %20, label %21

20:                                               ; preds = %4
  store i32 -1, ptr %5, align 4
  store i32 1, ptr %14, align 4
  br label %62

21:                                               ; preds = %4
  %22 = load ptr, ptr %13, align 8, !tbaa !10
  %23 = call i64 @strlen(ptr noundef %22) #7
  %24 = load i64, ptr %12, align 8, !tbaa !12
  %25 = icmp ne i64 %23, %24
  br i1 %25, label %26, label %28

26:                                               ; preds = %21
  %27 = load ptr, ptr @PyExc_ValueError, align 8, !tbaa !3
  call void @PyErr_SetString(ptr noundef %27, ptr noundef @.str.9)
  store i32 -1, ptr %5, align 4
  store i32 1, ptr %14, align 4
  br label %62

28:                                               ; preds = %21
  br label %29

29:                                               ; preds = %47, %28
  call void @llvm.lifetime.start.p0(i64 8, ptr %15) #6
  %30 = call ptr @PyEval_SaveThread()
  store ptr %30, ptr %15, align 8, !tbaa !14
  %31 = load ptr, ptr %13, align 8, !tbaa !10
  %32 = load i32, ptr %8, align 4, !tbaa !8
  %33 = load i32, ptr %9, align 4, !tbaa !8
  %34 = call i32 @shm_open(ptr noundef %31, i32 noundef %32, i32 noundef %33)
  store i32 %34, ptr %10, align 4, !tbaa !8
  %35 = load ptr, ptr %15, align 8, !tbaa !14
  call void @PyEval_RestoreThread(ptr noundef %35)
  call void @llvm.lifetime.end.p0(i64 8, ptr %15) #6
  br label %36

36:                                               ; preds = %29
  %37 = load i32, ptr %10, align 4, !tbaa !8
  %38 = icmp slt i32 %37, 0
  br i1 %38, label %39, label %47

39:                                               ; preds = %36
  %40 = call ptr @__errno_location() #8
  %41 = load i32, ptr %40, align 4, !tbaa !8
  %42 = icmp eq i32 %41, 4
  br i1 %42, label %43, label %47

43:                                               ; preds = %39
  %44 = call i32 @PyErr_CheckSignals()
  store i32 %44, ptr %11, align 4, !tbaa !8
  %45 = icmp ne i32 %44, 0
  %46 = xor i1 %45, true
  br label %47

47:                                               ; preds = %43, %39, %36
  %48 = phi i1 [ false, %39 ], [ false, %36 ], [ %46, %43 ]
  br i1 %48, label %29, label %49, !llvm.loop !16

49:                                               ; preds = %47
  %50 = load i32, ptr %10, align 4, !tbaa !8
  %51 = icmp slt i32 %50, 0
  br i1 %51, label %52, label %60

52:                                               ; preds = %49
  %53 = load i32, ptr %11, align 4, !tbaa !8
  %54 = icmp ne i32 %53, 0
  br i1 %54, label %59, label %55

55:                                               ; preds = %52
  %56 = load ptr, ptr @PyExc_OSError, align 8, !tbaa !3
  %57 = load ptr, ptr %7, align 8, !tbaa !3
  %58 = call ptr @PyErr_SetFromErrnoWithFilenameObject(ptr noundef %56, ptr noundef %57)
  br label %59

59:                                               ; preds = %55, %52
  store i32 -1, ptr %5, align 4
  store i32 1, ptr %14, align 4
  br label %62

60:                                               ; preds = %49
  %61 = load i32, ptr %10, align 4, !tbaa !8
  store i32 %61, ptr %5, align 4
  store i32 1, ptr %14, align 4
  br label %62

62:                                               ; preds = %60, %59, %26, %20
  call void @llvm.lifetime.end.p0(i64 8, ptr %13) #6
  call void @llvm.lifetime.end.p0(i64 8, ptr %12) #6
  call void @llvm.lifetime.end.p0(i64 4, ptr %11) #6
  call void @llvm.lifetime.end.p0(i64 4, ptr %10) #6
  %63 = load i32, ptr %5, align 4
  ret i32 %63
}

; Function Attrs: nounwind uwtable
define internal ptr @_posixshmem_shm_open(ptr noundef %0, ptr noundef %1, ptr noundef %2) #0 {
  %4 = alloca ptr, align 8
  %5 = alloca ptr, align 8
  %6 = alloca ptr, align 8
  %7 = alloca ptr, align 8
  %8 = alloca ptr, align 8
  %9 = alloca i32, align 4
  %10 = alloca i32, align 4
  %11 = alloca i32, align 4
  store ptr %0, ptr %4, align 8, !tbaa !3
  store ptr %1, ptr %5, align 8, !tbaa !3
  store ptr %2, ptr %6, align 8, !tbaa !3
  call void @llvm.lifetime.start.p0(i64 8, ptr %7) #6
  store ptr null, ptr %7, align 8, !tbaa !3
  call void @llvm.lifetime.start.p0(i64 8, ptr %8) #6
  call void @llvm.lifetime.start.p0(i64 4, ptr %9) #6
  call void @llvm.lifetime.start.p0(i64 4, ptr %10) #6
  store i32 511, ptr %10, align 4, !tbaa !8
  call void @llvm.lifetime.start.p0(i64 4, ptr %11) #6
  %12 = load ptr, ptr %5, align 8, !tbaa !3
  %13 = load ptr, ptr %6, align 8, !tbaa !3
  %14 = call i32 (ptr, ptr, ptr, ptr, ...) @PyArg_ParseTupleAndKeywords(ptr noundef %12, ptr noundef %13, ptr noundef @.str.8, ptr noundef @_posixshmem_shm_open._keywords, ptr noundef %8, ptr noundef %9, ptr noundef %10)
  %15 = icmp ne i32 %14, 0
  br i1 %15, label %17, label %16

16:                                               ; preds = %3
  br label %33

17:                                               ; preds = %3
  %18 = load ptr, ptr %4, align 8, !tbaa !3
  %19 = load ptr, ptr %8, align 8, !tbaa !3
  %20 = load i32, ptr %9, align 4, !tbaa !8
  %21 = load i32, ptr %10, align 4, !tbaa !8
  %22 = call i32 @_posixshmem_shm_open_impl(ptr noundef %18, ptr noundef %19, i32 noundef %20, i32 noundef %21)
  store i32 %22, ptr %11, align 4, !tbaa !8
  %23 = load i32, ptr %11, align 4, !tbaa !8
  %24 = icmp eq i32 %23, -1
  br i1 %24, label %25, label %29

25:                                               ; preds = %17
  %26 = call ptr @PyErr_Occurred()
  %27 = icmp ne ptr %26, null
  br i1 %27, label %28, label %29

28:                                               ; preds = %25
  br label %33

29:                                               ; preds = %25, %17
  %30 = load i32, ptr %11, align 4, !tbaa !8
  %31 = sext i32 %30 to i64
  %32 = call ptr @PyLong_FromLong(i64 noundef %31)
  store ptr %32, ptr %7, align 8, !tbaa !3
  br label %33

33:                                               ; preds = %29, %28, %16
  %34 = load ptr, ptr %7, align 8, !tbaa !3
  call void @llvm.lifetime.end.p0(i64 4, ptr %11) #6
  call void @llvm.lifetime.end.p0(i64 4, ptr %10) #6
  call void @llvm.lifetime.end.p0(i64 4, ptr %9) #6
  call void @llvm.lifetime.end.p0(i64 8, ptr %8) #6
  call void @llvm.lifetime.end.p0(i64 8, ptr %7) #6
  ret ptr %34
}