; Function Attrs: nounwind uwtable
define internal ptr @_posixshmem_shm_open(ptr readnone captures(none) %0, ptr noundef %1, ptr noundef %2) #0 {
  %4 = alloca i64, align 8
  %5 = alloca ptr, align 8
  %6 = alloca i32, align 4
  %7 = alloca i32, align 4
  call void @llvm.lifetime.start.p0(i64 8, ptr nonnull %5) #5
  call void @llvm.lifetime.start.p0(i64 4, ptr nonnull %6) #5
  call void @llvm.lifetime.start.p0(i64 4, ptr nonnull %7) #5
  store i32 511, ptr %7, align 4, !tbaa !3
  %8 = call i32 (ptr, ptr, ptr, ptr, ...) @PyArg_ParseTupleAndKeywords(ptr noundef %1, ptr noundef %2, ptr noundef nonnull @.str.8, ptr noundef nonnull @_posixshmem_shm_open._keywords, ptr noundef nonnull %5, ptr noundef nonnull %6, ptr noundef nonnull %7) #5
  %.not = icmp eq i32 %8, 0
  br i1 %.not, label %36, label %9

9:                                                ; preds = %3
  %10 = load ptr, ptr %5, align 8, !tbaa !7
  %11 = load i32, ptr %6, align 4, !tbaa !3
  %12 = load i32, ptr %7, align 4, !tbaa !3
  call void @llvm.lifetime.start.p0(i64 8, ptr nonnull %4) #5
  %13 = call ptr @PyUnicode_AsUTF8AndSize(ptr noundef %10, ptr noundef nonnull %4) #5
  %14 = icmp eq ptr %13, null
  br i1 %14, label %.loopexit, label %15

15:                                               ; preds = %9
  %16 = call i64 @strlen(ptr noundef nonnull dereferenceable(1) %13) #6
  %17 = load i64, ptr %4, align 8, !tbaa !10
  %.not.i = icmp eq i64 %16, %17
  br i1 %.not.i, label %.preheader.i, label %18

18:                                               ; preds = %15
  %19 = load ptr, ptr @PyExc_ValueError, align 8, !tbaa !7
  call void @PyErr_SetString(ptr noundef %19, ptr noundef nonnull @.str.9) #5
  br label %.loopexit

.preheader.i:                                     ; preds = %15, %27
  %20 = call ptr @PyEval_SaveThread() #5
  %21 = call i32 @shm_open(ptr noundef nonnull %13, i32 noundef %11, i32 noundef %12) #5
  call void @PyEval_RestoreThread(ptr noundef %20) #5
  %22 = icmp slt i32 %21, 0
  br i1 %22, label %23, label %_posixshmem_shm_open_impl.exit

23:                                               ; preds = %.preheader.i
  %24 = tail call ptr @__errno_location() #7
  %25 = load i32, ptr %24, align 4, !tbaa !3
  %26 = icmp eq i32 %25, 4
  br i1 %26, label %27, label %29

27:                                               ; preds = %23
  %28 = call i32 @PyErr_CheckSignals() #5
  %.not15.i = icmp eq i32 %28, 0
  br i1 %.not15.i, label %.preheader.i, label %.loopexit, !llvm.loop !12

29:                                               ; preds = %23
  %30 = load ptr, ptr @PyExc_OSError, align 8, !tbaa !7
  %31 = call ptr @PyErr_SetFromErrnoWithFilenameObject(ptr noundef %30, ptr noundef %10) #5
  br label %.loopexit

_posixshmem_shm_open_impl.exit:                   ; preds = %.preheader.i
  call void @llvm.lifetime.end.p0(i64 8, ptr nonnull %4) #5
  %32 = zext nneg i32 %21 to i64
  br label %34

.loopexit:                                        ; preds = %27, %18, %9, %29
  call void @llvm.lifetime.end.p0(i64 8, ptr nonnull %4) #5
  %33 = call ptr @PyErr_Occurred() #5
  %.not5 = icmp eq ptr %33, null
  br i1 %.not5, label %34, label %36

34:                                               ; preds = %_posixshmem_shm_open_impl.exit, %.loopexit
  %.0.i7 = phi i64 [ -1, %.loopexit ], [ %32, %_posixshmem_shm_open_impl.exit ]
  %35 = call ptr @PyLong_FromLong(i64 noundef %.0.i7) #5
  br label %36

36:                                               ; preds = %.loopexit, %3, %34
  %.0 = phi ptr [ null, %.loopexit ], [ %35, %34 ], [ null, %3 ]
  call void @llvm.lifetime.end.p0(i64 4, ptr nonnull %7) #5
  call void @llvm.lifetime.end.p0(i64 4, ptr nonnull %6) #5
  call void @llvm.lifetime.end.p0(i64 8, ptr nonnull %5) #5
  ret ptr %.0
}